target datalayout = "e-m:e-p270:32:32-p271:32:32-p272:64:64-i64:64-i128:128-f80:128-n8:16:32:64-S128"
target triple = "x86_64-pc-linux-gnu"

%"class.Imath_3_2::Box" = type { %"class.Imath_3_2::Vec2.0", %"class.Imath_3_2::Vec2.0" }
%"class.Imath_3_2::Vec2.0" = type { i32, i32 }

; Function Attrs: inlinehint mustprogress nounwind uwtable
define linkonce_odr noundef nonnull align 4 dereferenceable(4) ptr @_ZSt3minIiERKT_S2_S2_(ptr noundef nonnull align 4 dereferenceable(4) %0, ptr noundef nonnull align 4 dereferenceable(4) %1) #6 comdat {
  %3 = alloca ptr, align 8
  %4 = alloca ptr, align 8
  %5 = alloca ptr, align 8
  store ptr %0, ptr %4, align 8, !tbaa !29
  store ptr %1, ptr %5, align 8, !tbaa !29
  %6 = load ptr, ptr %5, align 8, !tbaa !29
  %7 = load i32, ptr %6, align 4, !tbaa !14
  %8 = load ptr, ptr %4, align 8, !tbaa !29
  %9 = load i32, ptr %8, align 4, !tbaa !14
  %10 = icmp slt i32 %7, %9
  br i1 %10, label %11, label %13

11:                                               ; preds = %2
  %12 = load ptr, ptr %5, align 8, !tbaa !29
  store ptr %12, ptr %3, align 8
  br label %15

13:                                               ; preds = %2
  %14 = load ptr, ptr %4, align 8, !tbaa !29
  store ptr %14, ptr %3, align 8
  br label %15

15:                                               ; preds = %13, %11
  %16 = load ptr, ptr %3, align 8
  ret ptr %16
}

; Function Attrs: mustprogress uwtable
define noundef i32 @_ZN7Imf_3_47CubeMap10sizeOfFaceERKN9Imath_3_23BoxINS1_4Vec2IiEEEE(ptr noundef nonnull align 4 dereferenceable(16) %0) #4 {
  %2 = alloca ptr, align 8
  %3 = alloca i32, align 4
  %4 = alloca i32, align 4
  store ptr %0, ptr %2, align 8, !tbaa !21
  call void @llvm.lifetime.start.p0(i64 4, ptr %3) #3
  %5 = load ptr, ptr %2, align 8, !tbaa !21
  %6 = getelementptr inbounds nuw %"class.Imath_3_2::Box", ptr %5, i32 0, i32 1
  %7 = getelementptr inbounds nuw %"class.Imath_3_2::Vec2.0", ptr %6, i32 0, i32 0
  %8 = load i32, ptr %7, align 4, !tbaa !27
  %9 = load ptr, ptr %2, align 8, !tbaa !21
  %10 = getelementptr inbounds nuw %"class.Imath_3_2::Box", ptr %9, i32 0, i32 0
  %11 = getelementptr inbounds nuw %"class.Imath_3_2::Vec2.0", ptr %10, i32 0, i32 0
  %12 = load i32, ptr %11, align 4, !tbaa !28
  %13 = sub nsw i32 %8, %12
  %14 = add nsw i32 %13, 1
  store i32 %14, ptr %3, align 4, !tbaa !14
  call void @llvm.lifetime.start.p0(i64 4, ptr %4) #3
  %15 = load ptr, ptr %2, align 8, !tbaa !21
  %16 = getelementptr inbounds nuw %"class.Imath_3_2::Box", ptr %15, i32 0, i32 1
  %17 = getelementptr inbounds nuw %"class.Imath_3_2::Vec2.0", ptr %16, i32 0, i32 1
  %18 = load i32, ptr %17, align 4, !tbaa !23
  %19 = load ptr, ptr %2, align 8, !tbaa !21
  %20 = getelementptr inbounds nuw %"class.Imath_3_2::Box", ptr %19, i32 0, i32 0
  %21 = getelementptr inbounds nuw %"class.Imath_3_2::Vec2.0", ptr %20, i32 0, i32 1
  %22 = load i32, ptr %21, align 4, !tbaa !26
  %23 = sub nsw i32 %18, %22
  %24 = add nsw i32 %23, 1
  %25 = sdiv i32 %24, 6
  store i32 %25, ptr %4, align 4, !tbaa !14
  %26 = call noundef nonnull align 4 dereferenceable(4) ptr @_ZSt3minIiERKT_S2_S2_(ptr noundef nonnull align 4 dereferenceable(4) %3, ptr noundef nonnull align 4 dereferenceable(4) %4)
  %27 = load i32, ptr %26, align 4, !tbaa !14
  call void @llvm.lifetime.end.p0(i64 4, ptr %4) #3
  call void @llvm.lifetime.end.p0(i64 4, ptr %3) #3
  ret i32 %27
}