; Function Attrs: mustprogress nofree norecurse nosync nounwind willreturn memory(argmem: read) uwtable
define noundef range(i32 -2147483647, 357913942) i32 @_ZN7Imf_3_47CubeMap10sizeOfFaceERKN9Imath_3_23BoxINS1_4Vec2IiEEEE(ptr noundef nonnull readonly align 4 captures(none) dereferenceable(16) %0) local_unnamed_addr #7 {
  %2 = getelementptr inbounds nuw i8, ptr %0, i64 8
  %3 = load i32, ptr %2, align 4, !tbaa !20
  %4 = load i32, ptr %0, align 4, !tbaa !21
  %5 = add i32 %3, 1
  %6 = sub i32 %5, %4
  %7 = getelementptr inbounds nuw i8, ptr %0, i64 12
  %8 = load i32, ptr %7, align 4, !tbaa !16
  %9 = getelementptr inbounds nuw i8, ptr %0, i64 4
  %10 = load i32, ptr %9, align 4, !tbaa !19
  %11 = add i32 %8, 1
  %12 = sub i32 %11, %10
  %13 = sdiv i32 %12, 6
  %.sroa.speculated = tail call i32 @llvm.smin.i32(i32 %13, i32 %6)
  ret i32 %.sroa.speculated
}